; Function Attrs: nounwind uwtable
define internal void @_lib_keymap_button_clicked(ptr noundef %0, ptr noundef %1) #1 {
  %3 = tail call i64 @gtk_toggle_button_get_type() #12
  %4 = tail call ptr @g_type_check_instance_cast(ptr noundef %0, i64 noundef %3) #10
  %5 = tail call i32 @gtk_toggle_button_get_active(ptr noundef %4) #10
  %.not = icmp eq i32 %5, 0
  br i1 %.not, label %7, label %6

6:                                                ; preds = %2
  tail call void (...) @dt_control_forbid_change_cursor() #10
  tail call fastcc void @_set_mapping_mode_cursor(ptr noundef %0)
  tail call void @gdk_event_handler_set(ptr noundef nonnull @_main_do_event_keymap, ptr noundef %1, ptr noundef null) #10
  br label %10

7:                                                ; preds = %2
  %8 = load ptr, ptr getelementptr inbounds nuw (i8, ptr @darktable, i64 88), align 8, !tbaa !19
  %9 = getelementptr inbounds nuw i8, ptr %8, i64 576
  store ptr null, ptr %9, align 8, !tbaa !129
  tail call void (...) @dt_control_allow_change_cursor() #10
  tail call void @dt_control_change_cursor(i32 noundef 68) #10
  tail call void @gdk_event_handler_set(ptr noundef nonnull @gtk_main_do_event, ptr noundef null, ptr noundef null) #10
  br label %10

10:                                               ; preds = %7, %6
  ret void
}